; Function Attrs: nounwind uwtable
define dso_local i64 @md5_bytea(ptr noundef readonly captures(none) %0) local_unnamed_addr #0 {
  %2 = alloca [33 x i8], align 16
  %3 = alloca ptr, align 8
  %4 = getelementptr inbounds nuw i8, ptr %0, i64 32
  %5 = load i64, ptr %4, align 8
  %6 = inttoptr i64 %5 to ptr
  %7 = tail call ptr @pg_detoast_datum_packed(ptr noundef %6) #6
  call void @llvm.lifetime.start.p0(i64 33, ptr nonnull %2) #6
  call void @llvm.lifetime.start.p0(i64 8, ptr nonnull %3) #6
  store ptr null, ptr %3, align 8
  %8 = load i8, ptr %7, align 1
  %9 = zext i8 %8 to i32
  %10 = icmp eq i8 %8, 1
  br i1 %10, label %11, label %20

11:                                               ; preds = %1
  %12 = getelementptr inbounds nuw i8, ptr %7, i64 1
  %13 = load i8, ptr %12, align 1
  %14 = icmp eq i8 %13, 1
  %15 = and i8 %13, -2
  %16 = icmp eq i8 %15, 2
  %or.cond = or i1 %14, %16
  %17 = icmp eq i8 %13, 18
  %18 = select i1 %17, i64 16, i64 0
  %19 = select i1 %or.cond, i64 8, i64 %18
  br label %31

20:                                               ; preds = %1
  %21 = and i32 %9, 1
  %.not = icmp eq i32 %21, 0
  br i1 %.not, label %26, label %22

22:                                               ; preds = %20
  %23 = lshr i32 %9, 1
  %24 = zext nneg i32 %23 to i64
  %25 = add nsw i64 %24, -1
  br label %31

26:                                               ; preds = %20
  %27 = load i32, ptr %7, align 4
  %28 = lshr i32 %27, 2
  %29 = add nsw i32 %28, -4
  %30 = zext i32 %29 to i64
  br label %31

31:                                               ; preds = %22, %26, %11
  %32 = phi i64 [ %19, %11 ], [ %25, %22 ], [ %30, %26 ]
  %33 = and i8 %8, 1
  %.not12 = icmp eq i8 %33, 0
  %.v = select i1 %.not12, i64 4, i64 1
  %34 = getelementptr inbounds nuw i8, ptr %7, i64 %.v
  %35 = call zeroext i1 @pg_md5_hash(ptr noundef nonnull %34, i64 noundef %32, ptr noundef nonnull %2, ptr noundef nonnull %3) #6
  br i1 %35, label %41, label %36

36:                                               ; preds = %31
  %37 = call zeroext i1 @errstart_cold(i32 noundef 21, ptr noundef null) #7
  call void @llvm.assume(i1 %37)
  %38 = call i32 @errcode(i32 noundef 2600) #6
  %39 = load ptr, ptr %3, align 8
  %40 = call i32 (ptr, ...) @errmsg(ptr noundef nonnull @.str, ptr noundef nonnull @.str.1, ptr noundef %39) #6
  call void @errfinish(ptr noundef nonnull @.str.2, i32 noundef 71, ptr noundef nonnull @__func__.md5_bytea) #6
  unreachable

41:                                               ; preds = %31
  %42 = call ptr @cstring_to_text(ptr noundef nonnull %2) #6
  %43 = ptrtoint ptr %42 to i64
  call void @llvm.lifetime.end.p0(i64 8, ptr nonnull %3) #6
  call void @llvm.lifetime.end.p0(i64 33, ptr nonnull %2) #6
  ret i64 %43
}